target datalayout = "e-m:e-p270:32:32-p271:32:32-p272:64:64-i64:64-i128:128-f80:128-n8:16:32:64-S128"
target triple = "x86_64-unknown-linux-gnu"

%struct.UResourceBundle = type { ptr, ptr, ptr, ptr, ptr, [64 x i8], i32, i32, i8, i8, i32, i32, i32, i32 }

; Function Attrs: mustprogress nounwind uwtable
define void @ures_resetIterator_75(ptr noundef %resB) #0 {
entry:
  %resB.addr = alloca ptr, align 8
  store ptr %resB, ptr %resB.addr, align 8
  %0 = load ptr, ptr %resB.addr, align 8
  %cmp = icmp eq ptr %0, null
  br i1 %cmp, label %if.then, label %if.end

if.then:                                          ; preds = %entry
  br label %return

if.end:                                           ; preds = %entry
  %1 = load ptr, ptr %resB.addr, align 8
  %fIndex = getelementptr inbounds %struct.UResourceBundle, ptr %1, i32 0, i32 12
  store i32 -1, ptr %fIndex, align 4
  br label %return

return:                                           ; preds = %if.end, %if.then
  ret void
}