; Function Attrs: mustprogress nofree norecurse nosync nounwind willreturn memory(argmem: write) uwtable
define void @ures_resetIterator_75(ptr noundef writeonly %resB) local_unnamed_addr #6 {
entry:
  %cmp = icmp eq ptr %resB, null
  br i1 %cmp, label %return, label %if.end

if.end:                                           ; preds = %entry
  %fIndex = getelementptr inbounds i8, ptr %resB, i64 124
  store i32 -1, ptr %fIndex, align 4
  br label %return

return:                                           ; preds = %entry, %if.end
  ret void
}